(dp1
S'sg_version_data'
p2
(dp3
S'code'
p4
S'v1.3.13'
p5
sS'description'
p6
S'[No wiki release notes found]'
p7
sS'tags'
p8
(lp9
sS'sg_payload'
p10
(dp11
S'name'
p12
S'tk-config-default2_v1.3.13.zip'
p13
sS'url'
p14
S'https://s3-proxy.shotgunstudio.com/d18c13bf0e59a9a82f18be518a1b6b508bcbd774/50dfef69137fe29bff158f51c1229cd41d13376e/tk-config-default2_v1.3.13.zip?response-content-disposition=filename%3D%22tk-config-default2_v1.3.13.zip%22&x-amz-meta-user-id=17276&x-amz-meta-user-type=ApiUser&X-Amz-Algorithm=AWS4-HMAC-SHA256&X-Amz-Credential=ASIAYJG6Z4JIQPYJDWX7%2F20201007%2Fus-west-2%2Fs3%2Faws4_request&X-Amz-Date=20201007T114547Z&X-Amz-Expires=900&X-Amz-SignedHeaders=host&X-Amz-Security-Token=FwoGZXIvYXdzEOz%2F%2F%2F%2F%2F%2F%2F%2F%2F%2FwEaDNLx4qeTaqDnu6IZyCKvAcpMJ%2B895aG%2BA4VO5gh3ylcqSS8uxhRZ2LzkyaDTkgSFfvyG%2BY1jvxQo6Mi%2FyfDUsjFgYTk%2B5AKDud3TFil8SyzgoYTif%2Bs9uvwkzVCT7v370yWjCbmKxvCUX8bB6IWdzNWhe2Le126eKKKvWoQDvFLI2LPKwNcZqdpK5syDJJN6S0%2FKOB6uFB%2FWFWOTEPO9gAUNbvGLp45zo33jqRryBJY5HK9PA1sX3Q8u8pkTkFMoicD2%2BwUyLYWhtgfsk3HbUaChLlrJ6DM9jweMkD9pRdXWB9NiK%2BR2v4WzVB%2BrGDGAgcR5hw%3D%3D&X-Amz-Signature=daa40189ae2d1c68836b4463b9dffc4c3b95e53be51f2c962024733972eea213'
p15
sS'content_type'
p16
S'application/zip'
p17
sS'type'
p18
S'Attachment'
p19
sS'id'
p20
I22775
sS'link_type'
p21
S'upload'
p22
ssS'sg_status_list'
p23
S'prod'
p24
sS'sg_detailed_release_notes'
p25
(dp26
S'name'
p27
S'v1.3.13'
p28
sS'url'
p29
S'https://support.shotgunsoftware.com/hc/en-us/articles/360042159573#1_3_13'
p30
sS'content_type'
p31
NsS'type'
p32
S'Attachment'
p33
sS'id'
p34
I22777
sS'link_type'
p35
S'web'
p36
ssS'sg_documentation'
p37
NsS'type'
p38
S'CustomNonProjectEntity08'
p39
sS'id'
p40
I1104
ssS'sg_bundle_data'
p41
(dp42
S'sg_status_list'
p43
S'hidden'
p44
sS'type'
p45
S'CustomNonProjectEntity07'
p46
sS'id'
p47
I81
sS'sg_system_name'
p48
S'tk-config-default2'
p49
sS'sg_deprecation_message'
p50
Nss.